target datalayout = "e-m:e-p270:32:32-p271:32:32-p272:64:64-i64:64-i128:128-f80:128-n8:16:32:64-S128"
target triple = "x86_64-pc-linux-gnu"

%"struct.Luau::NotNull" = type { ptr }
%"class.Luau::AstStat.base" = type { %"class.Luau::AstNode.base", i8 }
%"class.Luau::AstNode.base" = type <{ ptr, i32, %"struct.Luau::Location" }>
%"struct.Luau::Location" = type { %"struct.Luau::Position", %"struct.Luau::Position" }
%"struct.Luau::Position" = type { i32, i32 }
%"struct.Luau::DataFlowResult" = type { %"struct.Luau::NotNull", ptr }
%"class.Luau::AstStatReturn" = type { %"class.Luau::AstStat.base", %"struct.Luau::AstArray.91" }
%"struct.Luau::AstArray.91" = type { ptr, i64 }

; Function Attrs: mustprogress nounwind uwtable
define linkonce_odr dso_local noundef ptr @_ZNK4Luau8AstArrayIPNS_7AstExprEE3endEv(ptr noundef nonnull align 8 dereferenceable(16) %0) #4 comdat align 2 {
  %2 = alloca ptr, align 8
  store ptr %0, ptr %2, align 8, !tbaa !345
  %3 = load ptr, ptr %2, align 8
  %4 = getelementptr inbounds nuw %"struct.Luau::AstArray.91", ptr %3, i32 0, i32 0
  %5 = load ptr, ptr %4, align 8, !tbaa !426
  %6 = getelementptr inbounds nuw %"struct.Luau::AstArray.91", ptr %3, i32 0, i32 1
  %7 = load i64, ptr %6, align 8, !tbaa !427
  %8 = getelementptr inbounds nuw ptr, ptr %5, i64 %7
  ret ptr %8
}

; Function Attrs: mustprogress nounwind uwtable
define linkonce_odr dso_local noundef ptr @_ZNK4Luau8AstArrayIPNS_7AstExprEE5beginEv(ptr noundef nonnull align 8 dereferenceable(16) %0) #4 comdat align 2 {
  %2 = alloca ptr, align 8
  store ptr %0, ptr %2, align 8, !tbaa !345
  %3 = load ptr, ptr %2, align 8
  %4 = getelementptr inbounds nuw %"struct.Luau::AstArray.91", ptr %3, i32 0, i32 0
  %5 = load ptr, ptr %4, align 8, !tbaa !426
  ret ptr %5
}

; Function Attrs: mustprogress uwtable
define dso_local noundef i32 @_ZN4Luau20DataFlowGraphBuilder5visitEPNS_13AstStatReturnE(ptr noundef nonnull align 8 dereferenceable(336) %0, ptr noundef %1) #2 align 2 {
  %3 = alloca ptr, align 8
  %4 = alloca ptr, align 8
  %5 = alloca ptr, align 8
  %6 = alloca ptr, align 8
  %7 = alloca ptr, align 8
  %8 = alloca ptr, align 8
  %9 = alloca %"struct.Luau::DataFlowResult", align 8
  store ptr %0, ptr %3, align 8, !tbaa !154
  store ptr %1, ptr %4, align 8, !tbaa !298
  %10 = load ptr, ptr %3, align 8
  call void @llvm.lifetime.start.p0(i64 8, ptr %5) #17
  %11 = load ptr, ptr %4, align 8, !tbaa !298
  %12 = getelementptr inbounds nuw %"class.Luau::AstStatReturn", ptr %11, i32 0, i32 1
  store ptr %12, ptr %5, align 8, !tbaa !345
  call void @llvm.lifetime.start.p0(i64 8, ptr %6) #17
  %13 = load ptr, ptr %5, align 8, !tbaa !345
  %14 = call noundef ptr @_ZNK4Luau8AstArrayIPNS_7AstExprEE5beginEv(ptr noundef nonnull align 8 dereferenceable(16) %13)
  store ptr %14, ptr %6, align 8, !tbaa !54
  call void @llvm.lifetime.start.p0(i64 8, ptr %7) #17
  %15 = load ptr, ptr %5, align 8, !tbaa !345
  %16 = call noundef ptr @_ZNK4Luau8AstArrayIPNS_7AstExprEE3endEv(ptr noundef nonnull align 8 dereferenceable(16) %15)
  store ptr %16, ptr %7, align 8, !tbaa !54
  br label %17

17:                                               ; preds = %31, %2
  %18 = load ptr, ptr %6, align 8, !tbaa !54
  %19 = load ptr, ptr %7, align 8, !tbaa !54
  %20 = icmp ne ptr %18, %19
  br i1 %20, label %22, label %21

21:                                               ; preds = %17
  call void @llvm.lifetime.end.p0(i64 8, ptr %7) #17
  call void @llvm.lifetime.end.p0(i64 8, ptr %6) #17
  call void @llvm.lifetime.end.p0(i64 8, ptr %5) #17
  br label %34

22:                                               ; preds = %17
  call void @llvm.lifetime.start.p0(i64 8, ptr %8) #17
  %23 = load ptr, ptr %6, align 8, !tbaa !54
  %24 = load ptr, ptr %23, align 8, !tbaa !46
  store ptr %24, ptr %8, align 8, !tbaa !46
  %25 = load ptr, ptr %8, align 8, !tbaa !46
  %26 = call { ptr, ptr } @_ZN4Luau20DataFlowGraphBuilder9visitExprEPNS_7AstExprE(ptr noundef nonnull align 8 dereferenceable(336) %10, ptr noundef %25)
  %27 = getelementptr inbounds nuw { ptr, ptr }, ptr %9, i32 0, i32 0
  %28 = extractvalue { ptr, ptr } %26, 0
  store ptr %28, ptr %27, align 8
  %29 = getelementptr inbounds nuw { ptr, ptr }, ptr %9, i32 0, i32 1
  %30 = extractvalue { ptr, ptr } %26, 1
  store ptr %30, ptr %29, align 8
  call void @llvm.lifetime.end.p0(i64 8, ptr %8) #17
  br label %31

31:                                               ; preds = %22
  %32 = load ptr, ptr %6, align 8, !tbaa !54
  %33 = getelementptr inbounds nuw ptr, ptr %32, i32 1
  store ptr %33, ptr %6, align 8, !tbaa !54
  br label %17

34:                                               ; preds = %21
  ret i32 2
}