; Function Attrs: mustprogress uwtable
define dso_local noundef i32 @_ZN4Luau20DataFlowGraphBuilder5visitEPNS_13AstStatReturnE(ptr noundef nonnull align 8 dereferenceable(336) %0, ptr noundef readonly captures(none) %1) local_unnamed_addr #2 align 2 {
  %3 = getelementptr inbounds nuw i8, ptr %1, i64 32
  %4 = load ptr, ptr %3, align 8, !tbaa !250
  %5 = getelementptr inbounds nuw i8, ptr %1, i64 40
  %6 = load i64, ptr %5, align 8, !tbaa !253
  %7 = getelementptr inbounds nuw ptr, ptr %4, i64 %6
  %.not9 = icmp eq i64 %6, 0
  br i1 %.not9, label %._crit_edge, label %.lr.ph

._crit_edge:                                      ; preds = %.lr.ph, %2
  ret i32 2

.lr.ph:                                           ; preds = %2, %.lr.ph
  %.010 = phi ptr [ %10, %.lr.ph ], [ %4, %2 ]
  %8 = load ptr, ptr %.010, align 8, !tbaa !53
  %9 = tail call { ptr, ptr } @_ZN4Luau20DataFlowGraphBuilder9visitExprEPNS_7AstExprE(ptr noundef nonnull align 8 dereferenceable(336) %0, ptr noundef %8)
  %10 = getelementptr inbounds nuw i8, ptr %.010, i64 8
  %.not = icmp eq ptr %10, %7
  br i1 %.not, label %._crit_edge, label %.lr.ph
}